target datalayout = "e-m:e-p270:32:32-p271:32:32-p272:64:64-i64:64-i128:128-f80:128-n8:16:32:64-S128"
target triple = "x86_64-pc-linux-gnu"

%struct.pmix_class_t = type { ptr, ptr, ptr, ptr, i32, i32, ptr, ptr, i64 }
%struct.pmix_list_t = type { %struct.pmix_object_t, %struct.pmix_list_item_t, i64 }
%struct.pmix_object_t = type { %union.pthread_mutex_t, ptr, i32, %struct.pmix_tma }
%union.pthread_mutex_t = type { %struct.__pthread_mutex_s }
%struct.__pthread_mutex_s = type { i32, i32, i32, i32, i32, i16, i16, %struct.__pthread_internal_list }
%struct.__pthread_internal_list = type { ptr, ptr }
%struct.pmix_tma = type { ptr, ptr, ptr, ptr, ptr, ptr, ptr, ptr }
%struct.pmix_list_item_t = type { %struct.pmix_object_t, ptr, ptr, i32 }
%struct.event = type { %struct.event_callback, %union.anon.0, i32, ptr, %union.anon.2, i16, i16, %struct.timeval }
%struct.event_callback = type { %struct.anon, i16, i8, i8, %union.anon, ptr }
%struct.anon = type { ptr, ptr }
%union.anon = type { ptr }
%union.anon.0 = type { %struct.anon.1 }
%struct.anon.1 = type { ptr, ptr }
%union.anon.2 = type { %struct.anon.3 }
%struct.anon.3 = type { %struct.anon.4, %struct.timeval }
%struct.anon.4 = type { ptr, ptr }
%struct.timeval = type { i64, i64 }
%struct.prte_filem_raw_incoming_t = type { %struct.pmix_list_item_t, i32, %struct.event, i8, i32, ptr, ptr, ptr, i32, ptr, %struct.pmix_list_t }

@.str.13 = private unnamed_addr constant [21 x i8] c"pthread_mutex_lock()\00", align 1

; Function Attrs: inlinehint nounwind uwtable
define internal void @pmix_tma_free(ptr noundef %0, ptr noundef %1) #2 {
  %3 = alloca ptr, align 8
  %4 = alloca ptr, align 8
  store ptr %0, ptr %3, align 8, !tbaa !129
  store ptr %1, ptr %4, align 8, !tbaa !38
  %5 = load ptr, ptr %3, align 8, !tbaa !129
  %6 = icmp ne ptr null, %5
  br i1 %6, label %7, label %13

7:                                                ; preds = %2
  %8 = load ptr, ptr %3, align 8, !tbaa !129
  %9 = getelementptr inbounds nuw %struct.pmix_tma, ptr %8, i32 0, i32 5
  %10 = load ptr, ptr %9, align 8, !tbaa !161
  %11 = load ptr, ptr %3, align 8, !tbaa !129
  %12 = load ptr, ptr %4, align 8, !tbaa !38
  call void %10(ptr noundef %11, ptr noundef %12)
  br label %15

13:                                               ; preds = %2
  %14 = load ptr, ptr %4, align 8, !tbaa !38
  call void @free(ptr noundef %14) #13
  br label %15

15:                                               ; preds = %13, %7
  ret void
}

; Function Attrs: inlinehint nounwind uwtable
define internal void @pmix_obj_run_destructors(ptr noundef %0) #2 {
  %2 = alloca ptr, align 8
  %3 = alloca ptr, align 8
  store ptr %0, ptr %2, align 8, !tbaa !31
  call void @llvm.lifetime.start.p0(i64 8, ptr %3) #13
  %4 = load ptr, ptr %2, align 8, !tbaa !31
  %5 = getelementptr inbounds nuw %struct.pmix_object_t, ptr %4, i32 0, i32 1
  %6 = load ptr, ptr %5, align 8, !tbaa !13
  %7 = getelementptr inbounds nuw %struct.pmix_class_t, ptr %6, i32 0, i32 7
  %8 = load ptr, ptr %7, align 8, !tbaa !159
  store ptr %8, ptr %3, align 8, !tbaa !38
  br label %9

9:                                                ; preds = %13, %1
  %10 = load ptr, ptr %3, align 8, !tbaa !38
  %11 = load ptr, ptr %10, align 8, !tbaa !38
  %12 = icmp ne ptr null, %11
  br i1 %12, label %13, label %19

13:                                               ; preds = %9
  %14 = load ptr, ptr %3, align 8, !tbaa !38
  %15 = load ptr, ptr %14, align 8, !tbaa !38
  %16 = load ptr, ptr %2, align 8, !tbaa !31
  call void %15(ptr noundef %16)
  %17 = load ptr, ptr %3, align 8, !tbaa !38
  %18 = getelementptr inbounds nuw ptr, ptr %17, i32 1
  store ptr %18, ptr %3, align 8, !tbaa !38
  br label %9, !llvm.loop !160

19:                                               ; preds = %9
  call void @llvm.lifetime.end.p0(i64 8, ptr %3) #13
  ret void
}

; Function Attrs: alwaysinline nounwind uwtable
define internal i32 @pmix_obj_update(ptr noundef %0, i32 noundef %1) #7 {
  %3 = alloca ptr, align 8
  %4 = alloca i32, align 4
  %5 = alloca i32, align 4
  store ptr %0, ptr %3, align 8, !tbaa !31
  store i32 %1, ptr %4, align 4, !tbaa !3
  call void @llvm.lifetime.start.p0(i64 4, ptr %5) #13
  %6 = load ptr, ptr %3, align 8, !tbaa !31
  %7 = getelementptr inbounds nuw %struct.pmix_object_t, ptr %6, i32 0, i32 0
  %8 = call i32 @pthread_mutex_lock(ptr noundef %7) #13
  store i32 %8, ptr %5, align 4, !tbaa !3
  %9 = load i32, ptr %5, align 4, !tbaa !3
  %10 = icmp eq i32 %9, 35
  br i1 %10, label %11, label %14

11:                                               ; preds = %2
  %12 = load i32, ptr %5, align 4, !tbaa !3
  %13 = call ptr @__errno_location() #15
  store i32 %12, ptr %13, align 4, !tbaa !3
  call void @perror(ptr noundef @.str.13)
  call void @abort() #16
  unreachable

14:                                               ; preds = %2
  %15 = load i32, ptr %4, align 4, !tbaa !3
  %16 = load ptr, ptr %3, align 8, !tbaa !31
  %17 = getelementptr inbounds nuw %struct.pmix_object_t, ptr %16, i32 0, i32 2
  %18 = load i32, ptr %17, align 8, !tbaa !16
  %19 = add nsw i32 %18, %15
  store i32 %19, ptr %17, align 8, !tbaa !16
  store i32 %19, ptr %5, align 4, !tbaa !3
  %20 = load ptr, ptr %3, align 8, !tbaa !31
  %21 = getelementptr inbounds nuw %struct.pmix_object_t, ptr %20, i32 0, i32 0
  %22 = call i32 @pthread_mutex_unlock(ptr noundef %21) #13
  %23 = load i32, ptr %5, align 4, !tbaa !3
  call void @llvm.lifetime.end.p0(i64 4, ptr %5) #13
  ret i32 %23
}

; Function Attrs: inlinehint nounwind uwtable
define internal ptr @pmix_list_remove_first(ptr noundef %0) #2 {
  %2 = alloca ptr, align 8
  %3 = alloca ptr, align 8
  %4 = alloca ptr, align 8
  %5 = alloca i32, align 4
  store ptr %0, ptr %3, align 8, !tbaa !152
  call void @llvm.lifetime.start.p0(i64 8, ptr %4) #13
  %6 = load ptr, ptr %3, align 8, !tbaa !152
  %7 = getelementptr inbounds nuw %struct.pmix_list_t, ptr %6, i32 0, i32 2
  %8 = load volatile i64, ptr %7, align 8, !tbaa !158
  %9 = icmp eq i64 0, %8
  br i1 %9, label %10, label %11

10:                                               ; preds = %1
  store ptr null, ptr %2, align 8
  store i32 1, ptr %5, align 4
  br label %34

11:                                               ; preds = %1
  %12 = load ptr, ptr %3, align 8, !tbaa !152
  %13 = getelementptr inbounds nuw %struct.pmix_list_t, ptr %12, i32 0, i32 2
  %14 = load volatile i64, ptr %13, align 8, !tbaa !158
  %15 = add i64 %14, -1
  store volatile i64 %15, ptr %13, align 8, !tbaa !158
  %16 = load ptr, ptr %3, align 8, !tbaa !152
  %17 = getelementptr inbounds nuw %struct.pmix_list_t, ptr %16, i32 0, i32 1
  %18 = getelementptr inbounds nuw %struct.pmix_list_item_t, ptr %17, i32 0, i32 1
  %19 = load ptr, ptr %18, align 8, !tbaa !154
  store ptr %19, ptr %4, align 8, !tbaa !30
  %20 = load ptr, ptr %4, align 8, !tbaa !30
  %21 = getelementptr inbounds nuw %struct.pmix_list_item_t, ptr %20, i32 0, i32 2
  %22 = load volatile ptr, ptr %21, align 8, !tbaa !157
  %23 = load ptr, ptr %4, align 8, !tbaa !30
  %24 = getelementptr inbounds nuw %struct.pmix_list_item_t, ptr %23, i32 0, i32 1
  %25 = load volatile ptr, ptr %24, align 8, !tbaa !83
  %26 = getelementptr inbounds nuw %struct.pmix_list_item_t, ptr %25, i32 0, i32 2
  store volatile ptr %22, ptr %26, align 8, !tbaa !157
  %27 = load ptr, ptr %4, align 8, !tbaa !30
  %28 = getelementptr inbounds nuw %struct.pmix_list_item_t, ptr %27, i32 0, i32 1
  %29 = load volatile ptr, ptr %28, align 8, !tbaa !83
  %30 = load ptr, ptr %3, align 8, !tbaa !152
  %31 = getelementptr inbounds nuw %struct.pmix_list_t, ptr %30, i32 0, i32 1
  %32 = getelementptr inbounds nuw %struct.pmix_list_item_t, ptr %31, i32 0, i32 1
  store ptr %29, ptr %32, align 8, !tbaa !154
  %33 = load ptr, ptr %4, align 8, !tbaa !30
  store ptr %33, ptr %2, align 8
  store i32 1, ptr %5, align 4
  br label %34

34:                                               ; preds = %11, %10
  call void @llvm.lifetime.end.p0(i64 8, ptr %4) #13
  %35 = load ptr, ptr %2, align 8
  ret ptr %35
}

; Function Attrs: nounwind uwtable
define internal void @in_destruct(ptr noundef %0) #0 {
  %2 = alloca ptr, align 8
  %3 = alloca ptr, align 8
  %4 = alloca ptr, align 8
  store ptr %0, ptr %2, align 8, !tbaa !38
  %5 = load ptr, ptr %2, align 8, !tbaa !38
  %6 = getelementptr inbounds nuw %struct.prte_filem_raw_incoming_t, ptr %5, i32 0, i32 3
  %7 = load i8, ptr %6, align 8, !tbaa !122, !range !65, !noundef !66
  %8 = trunc i8 %7 to i1
  br i1 %8, label %9, label %13

9:                                                ; preds = %1
  %10 = load ptr, ptr %2, align 8, !tbaa !38
  %11 = getelementptr inbounds nuw %struct.prte_filem_raw_incoming_t, ptr %10, i32 0, i32 2
  %12 = call i32 @event_del(ptr noundef %11)
  br label %13

13:                                               ; preds = %9, %1
  %14 = load ptr, ptr %2, align 8, !tbaa !38
  %15 = getelementptr inbounds nuw %struct.prte_filem_raw_incoming_t, ptr %14, i32 0, i32 4
  %16 = load i32, ptr %15, align 4, !tbaa !123
  %17 = icmp sle i32 0, %16
  br i1 %17, label %18, label %23

18:                                               ; preds = %13
  %19 = load ptr, ptr %2, align 8, !tbaa !38
  %20 = getelementptr inbounds nuw %struct.prte_filem_raw_incoming_t, ptr %19, i32 0, i32 4
  %21 = load i32, ptr %20, align 4, !tbaa !123
  %22 = call i32 @close(i32 noundef %21)
  br label %23

23:                                               ; preds = %18, %13
  %24 = load ptr, ptr %2, align 8, !tbaa !38
  %25 = getelementptr inbounds nuw %struct.prte_filem_raw_incoming_t, ptr %24, i32 0, i32 5
  %26 = load ptr, ptr %25, align 8, !tbaa !108
  %27 = icmp ne ptr null, %26
  br i1 %27, label %28, label %32

28:                                               ; preds = %23
  %29 = load ptr, ptr %2, align 8, !tbaa !38
  %30 = getelementptr inbounds nuw %struct.prte_filem_raw_incoming_t, ptr %29, i32 0, i32 5
  %31 = load ptr, ptr %30, align 8, !tbaa !108
  call void @free(ptr noundef %31) #13
  br label %32

32:                                               ; preds = %28, %23
  %33 = load ptr, ptr %2, align 8, !tbaa !38
  %34 = getelementptr inbounds nuw %struct.prte_filem_raw_incoming_t, ptr %33, i32 0, i32 6
  %35 = load ptr, ptr %34, align 8, !tbaa !124
  %36 = icmp ne ptr null, %35
  br i1 %36, label %37, label %41

37:                                               ; preds = %32
  %38 = load ptr, ptr %2, align 8, !tbaa !38
  %39 = getelementptr inbounds nuw %struct.prte_filem_raw_incoming_t, ptr %38, i32 0, i32 6
  %40 = load ptr, ptr %39, align 8, !tbaa !124
  call void @free(ptr noundef %40) #13
  br label %41

41:                                               ; preds = %37, %32
  %42 = load ptr, ptr %2, align 8, !tbaa !38
  %43 = getelementptr inbounds nuw %struct.prte_filem_raw_incoming_t, ptr %42, i32 0, i32 7
  %44 = load ptr, ptr %43, align 8, !tbaa !125
  %45 = icmp ne ptr null, %44
  br i1 %45, label %46, label %50

46:                                               ; preds = %41
  %47 = load ptr, ptr %2, align 8, !tbaa !38
  %48 = getelementptr inbounds nuw %struct.prte_filem_raw_incoming_t, ptr %47, i32 0, i32 7
  %49 = load ptr, ptr %48, align 8, !tbaa !125
  call void @free(ptr noundef %49) #13
  br label %50

50:                                               ; preds = %46, %41
  %51 = load ptr, ptr %2, align 8, !tbaa !38
  %52 = getelementptr inbounds nuw %struct.prte_filem_raw_incoming_t, ptr %51, i32 0, i32 9
  %53 = load ptr, ptr %52, align 8, !tbaa !110
  call void @PMIx_Argv_free(ptr noundef %53)
  br label %54

54:                                               ; preds = %50
  call void @llvm.lifetime.start.p0(i64 8, ptr %3) #13
  br label %55

55:                                               ; preds = %82, %54
  %56 = load ptr, ptr %2, align 8, !tbaa !38
  %57 = getelementptr inbounds nuw %struct.prte_filem_raw_incoming_t, ptr %56, i32 0, i32 10
  %58 = call ptr @pmix_list_remove_first(ptr noundef %57)
  store ptr %58, ptr %3, align 8, !tbaa !30
  %59 = icmp ne ptr null, %58
  br i1 %59, label %60, label %83

60:                                               ; preds = %55
  br label %61

61:                                               ; preds = %60
  call void @llvm.lifetime.start.p0(i64 8, ptr %4) #13
  %62 = load ptr, ptr %3, align 8, !tbaa !30
  store ptr %62, ptr %4, align 8, !tbaa !31
  %63 = load ptr, ptr %4, align 8, !tbaa !31
  %64 = call i32 @pmix_obj_update(ptr noundef %63, i32 noundef -1)
  %65 = icmp eq i32 0, %64
  br i1 %65, label %66, label %80

66:                                               ; preds = %61
  %67 = load ptr, ptr %4, align 8, !tbaa !31
  call void @pmix_obj_run_destructors(ptr noundef %67)
  %68 = load ptr, ptr %4, align 8, !tbaa !31
  %69 = getelementptr inbounds nuw %struct.pmix_object_t, ptr %68, i32 0, i32 3
  %70 = getelementptr inbounds nuw %struct.pmix_tma, ptr %69, i32 0, i32 5
  %71 = load ptr, ptr %70, align 8, !tbaa !33
  %72 = icmp ne ptr null, %71
  br i1 %72, label %73, label %77

73:                                               ; preds = %66
  %74 = load ptr, ptr %4, align 8, !tbaa !31
  %75 = getelementptr inbounds nuw %struct.pmix_object_t, ptr %74, i32 0, i32 3
  %76 = load ptr, ptr %3, align 8, !tbaa !30
  call void @pmix_tma_free(ptr noundef %75, ptr noundef %76)
  br label %79

77:                                               ; preds = %66
  %78 = load ptr, ptr %3, align 8, !tbaa !30
  call void @free(ptr noundef %78) #13
  br label %79

79:                                               ; preds = %77, %73
  store ptr null, ptr %3, align 8, !tbaa !30
  br label %80

80:                                               ; preds = %79, %61
  call void @llvm.lifetime.end.p0(i64 8, ptr %4) #13
  br label %81

81:                                               ; preds = %80
  br label %82

82:                                               ; preds = %81
  br label %55, !llvm.loop !126

83:                                               ; preds = %55
  br label %84

84:                                               ; preds = %83
  %85 = load ptr, ptr %2, align 8, !tbaa !38
  %86 = getelementptr inbounds nuw %struct.prte_filem_raw_incoming_t, ptr %85, i32 0, i32 10
  call void @pmix_obj_run_destructors(ptr noundef %86)
  br label %87

87:                                               ; preds = %84
  br label %88

88:                                               ; preds = %87
  call void @llvm.lifetime.end.p0(i64 8, ptr %3) #13
  br label %89

89:                                               ; preds = %88
  ret void
}