; Function Attrs: nounwind uwtable
define internal void @in_destruct(ptr noundef %0) #0 {
  %2 = getelementptr inbounds nuw i8, ptr %0, i64 280
  %3 = load i8, ptr %2, align 8, !tbaa !124, !range !69, !noundef !70
  %4 = trunc nuw i8 %3 to i1
  br i1 %4, label %5, label %8

5:                                                ; preds = %1
  %6 = getelementptr inbounds nuw i8, ptr %0, i64 152
  %7 = tail call i32 @event_del(ptr noundef nonnull %6) #16
  br label %8

8:                                                ; preds = %5, %1
  %9 = getelementptr inbounds nuw i8, ptr %0, i64 284
  %10 = load i32, ptr %9, align 4, !tbaa !125
  %11 = icmp sgt i32 %10, -1
  br i1 %11, label %12, label %14

12:                                               ; preds = %8
  %13 = tail call i32 @close(i32 noundef %10) #16
  br label %14

14:                                               ; preds = %12, %8
  %15 = getelementptr inbounds nuw i8, ptr %0, i64 288
  %16 = load ptr, ptr %15, align 8, !tbaa !110
  %.not = icmp eq ptr %16, null
  br i1 %.not, label %18, label %17

17:                                               ; preds = %14
  tail call void @free(ptr noundef nonnull %16) #16
  br label %18

18:                                               ; preds = %17, %14
  %19 = getelementptr inbounds nuw i8, ptr %0, i64 296
  %20 = load ptr, ptr %19, align 8, !tbaa !126
  %.not24 = icmp eq ptr %20, null
  br i1 %.not24, label %22, label %21

21:                                               ; preds = %18
  tail call void @free(ptr noundef nonnull %20) #16
  br label %22

22:                                               ; preds = %21, %18
  %23 = getelementptr inbounds nuw i8, ptr %0, i64 304
  %24 = load ptr, ptr %23, align 8, !tbaa !127
  %.not25 = icmp eq ptr %24, null
  br i1 %.not25, label %26, label %25

25:                                               ; preds = %22
  tail call void @free(ptr noundef nonnull %24) #16
  br label %26

26:                                               ; preds = %25, %22
  %27 = getelementptr inbounds nuw i8, ptr %0, i64 320
  %28 = load ptr, ptr %27, align 8, !tbaa !113
  tail call void @PMIx_Argv_free(ptr noundef %28) #16
  %29 = getelementptr inbounds nuw i8, ptr %0, i64 592
  %30 = load volatile i64, ptr %29, align 8, !tbaa !34
  %31 = icmp eq i64 %30, 0
  br i1 %31, label %._crit_edge, label %.lr.ph

.lr.ph:                                           ; preds = %26
  %32 = getelementptr inbounds nuw i8, ptr %0, i64 568
  br label %33

33:                                               ; preds = %.lr.ph, %66
  %34 = load volatile i64, ptr %29, align 8, !tbaa !34
  %35 = add i64 %34, -1
  store volatile i64 %35, ptr %29, align 8, !tbaa !34
  %36 = load ptr, ptr %32, align 8, !tbaa !35
  %37 = getelementptr inbounds nuw i8, ptr %36, i64 128
  %38 = load volatile ptr, ptr %37, align 8, !tbaa !36
  %39 = getelementptr inbounds nuw i8, ptr %36, i64 120
  %40 = load volatile ptr, ptr %39, align 8, !tbaa !37
  %41 = getelementptr inbounds nuw i8, ptr %40, i64 128
  store volatile ptr %38, ptr %41, align 8, !tbaa !36
  %42 = load volatile ptr, ptr %39, align 8, !tbaa !37
  store ptr %42, ptr %32, align 8, !tbaa !35
  %43 = tail call i32 @pthread_mutex_lock(ptr noundef nonnull %36) #16
  %44 = icmp eq i32 %43, 35
  br i1 %44, label %45, label %pmix_obj_update.exit

45:                                               ; preds = %33
  %46 = tail call ptr @__errno_location() #17
  store i32 35, ptr %46, align 4, !tbaa !3
  tail call void @perror(ptr noundef nonnull @.str.13) #18
  tail call void @abort() #19
  unreachable

pmix_obj_update.exit:                             ; preds = %33
  %47 = getelementptr inbounds nuw i8, ptr %36, i64 48
  %48 = load i32, ptr %47, align 8, !tbaa !16
  %49 = add nsw i32 %48, -1
  store i32 %49, ptr %47, align 8, !tbaa !16
  %50 = tail call i32 @pthread_mutex_unlock(ptr noundef nonnull %36) #16
  %51 = icmp eq i32 %49, 0
  br i1 %51, label %52, label %66

52:                                               ; preds = %pmix_obj_update.exit
  %53 = getelementptr inbounds nuw i8, ptr %36, i64 40
  %54 = load ptr, ptr %53, align 8, !tbaa !13
  %55 = getelementptr inbounds nuw i8, ptr %54, i64 48
  %56 = load ptr, ptr %55, align 8, !tbaa !38
  %57 = load ptr, ptr %56, align 8, !tbaa !18
  %.not6.i = icmp eq ptr %57, null
  br i1 %.not6.i, label %pmix_obj_run_destructors.exit, label %.lr.ph.i

.lr.ph.i:                                         ; preds = %52, %.lr.ph.i
  %58 = phi ptr [ %60, %.lr.ph.i ], [ %57, %52 ]
  %.07.i = phi ptr [ %59, %.lr.ph.i ], [ %56, %52 ]
  tail call void %58(ptr noundef nonnull %36) #16
  %59 = getelementptr inbounds nuw i8, ptr %.07.i, i64 8
  %60 = load ptr, ptr %59, align 8, !tbaa !18
  %.not.i = icmp eq ptr %60, null
  br i1 %.not.i, label %pmix_obj_run_destructors.exit, label %.lr.ph.i, !llvm.loop !39

pmix_obj_run_destructors.exit:                    ; preds = %.lr.ph.i, %52
  %61 = getelementptr inbounds nuw i8, ptr %36, i64 96
  %62 = load ptr, ptr %61, align 8, !tbaa !40
  %.not27 = icmp eq ptr %62, null
  br i1 %.not27, label %65, label %63

63:                                               ; preds = %pmix_obj_run_destructors.exit
  %64 = getelementptr inbounds nuw i8, ptr %36, i64 56
  tail call void %62(ptr noundef nonnull %64, ptr noundef nonnull %36) #16
  br label %66

65:                                               ; preds = %pmix_obj_run_destructors.exit
  tail call void @free(ptr noundef nonnull %36) #16
  br label %66

66:                                               ; preds = %63, %65, %pmix_obj_update.exit
  %67 = load volatile i64, ptr %29, align 8, !tbaa !34
  %68 = icmp eq i64 %67, 0
  br i1 %68, label %._crit_edge, label %33, !llvm.loop !128

._crit_edge:                                      ; preds = %66, %26
  %69 = getelementptr inbounds nuw i8, ptr %0, i64 328
  %70 = getelementptr inbounds nuw i8, ptr %0, i64 368
  %71 = load ptr, ptr %70, align 8, !tbaa !13
  %72 = getelementptr inbounds nuw i8, ptr %71, i64 48
  %73 = load ptr, ptr %72, align 8, !tbaa !38
  %74 = load ptr, ptr %73, align 8, !tbaa !18
  %.not6.i29 = icmp eq ptr %74, null
  br i1 %.not6.i29, label %pmix_obj_run_destructors.exit33, label %.lr.ph.i30

.lr.ph.i30:                                       ; preds = %._crit_edge, %.lr.ph.i30
  %75 = phi ptr [ %77, %.lr.ph.i30 ], [ %74, %._crit_edge ]
  %.07.i31 = phi ptr [ %76, %.lr.ph.i30 ], [ %73, %._crit_edge ]
  tail call void %75(ptr noundef nonnull %69) #16
  %76 = getelementptr inbounds nuw i8, ptr %.07.i31, i64 8
  %77 = load ptr, ptr %76, align 8, !tbaa !18
  %.not.i32 = icmp eq ptr %77, null
  br i1 %.not.i32, label %pmix_obj_run_destructors.exit33, label %.lr.ph.i30, !llvm.loop !39

pmix_obj_run_destructors.exit33:                  ; preds = %.lr.ph.i30, %._crit_edge
  ret void
}